; Function Attrs: mustprogress uwtable
define internal void @_ZNK19OpenColorIO_v2_4dev12_GLOBAL__N_116GradingToneOpCPU18getDynamicPropertyENS_19DynamicPropertyTypeE(ptr noalias nocapture writeonly sret(%"class.std::shared_ptr.31") align 8 %agg.result, ptr nocapture noundef nonnull readonly align 8 dereferenceable(28) %this, i32 noundef %type) unnamed_addr #3 align 2 personality ptr @__gxx_personality_v0 {
entry:
  %cmp = icmp eq i32 %type, 5
  br i1 %cmp, label %if.then, label %if.end

if.then:                                          ; preds = %entry
  %m_gt = getelementptr inbounds i8, ptr %this, i64 8
  %0 = load ptr, ptr %m_gt, align 8
  %m_isDynamic.i = getelementptr inbounds i8, ptr %0, i64 12
  %1 = load i8, ptr %m_isDynamic.i, align 4
  %2 = and i8 %1, 1
  %tobool.i.not = icmp eq i8 %2, 0
  br i1 %tobool.i.not, label %if.else, label %if.then3

if.then3:                                         ; preds = %if.then
  store ptr %0, ptr %agg.result, align 8
  %_M_refcount.i.i = getelementptr inbounds i8, ptr %agg.result, i64 8
  %_M_refcount3.i.i = getelementptr inbounds i8, ptr %this, i64 16
  %3 = load ptr, ptr %_M_refcount3.i.i, align 8
  store ptr %3, ptr %_M_refcount.i.i, align 8
  %cmp.not.i.i.i = icmp eq ptr %3, null
  br i1 %cmp.not.i.i.i, label %_ZNSt10shared_ptrIN19OpenColorIO_v2_4dev15DynamicPropertyEEC2INS0_30DynamicPropertyGradingToneImplEvEERKS_IT_E.exit, label %if.then.i.i.i

if.then.i.i.i:                                    ; preds = %if.then3
  %_M_use_count.i.i.i.i = getelementptr inbounds i8, ptr %3, i64 8
  %4 = load i8, ptr @__libc_single_threaded, align 1
  %tobool.i.i.not.i.i.i.i = icmp eq i8 %4, 0
  br i1 %tobool.i.i.not.i.i.i.i, label %if.else.i.i.i.i.i, label %if.then.i.i.i.i.i

if.then.i.i.i.i.i:                                ; preds = %if.then.i.i.i
  %5 = load i32, ptr %_M_use_count.i.i.i.i, align 4
  %add.i.i.i.i.i = add nsw i32 %5, 1
  store i32 %add.i.i.i.i.i, ptr %_M_use_count.i.i.i.i, align 4
  br label %_ZNSt10shared_ptrIN19OpenColorIO_v2_4dev15DynamicPropertyEEC2INS0_30DynamicPropertyGradingToneImplEvEERKS_IT_E.exit

if.else.i.i.i.i.i:                                ; preds = %if.then.i.i.i
  %6 = atomicrmw volatile add ptr %_M_use_count.i.i.i.i, i32 1 acq_rel, align 4
  br label %_ZNSt10shared_ptrIN19OpenColorIO_v2_4dev15DynamicPropertyEEC2INS0_30DynamicPropertyGradingToneImplEvEERKS_IT_E.exit

_ZNSt10shared_ptrIN19OpenColorIO_v2_4dev15DynamicPropertyEEC2INS0_30DynamicPropertyGradingToneImplEvEERKS_IT_E.exit: ; preds = %if.then3, %if.then.i.i.i.i.i, %if.else.i.i.i.i.i
  ret void

if.else:                                          ; preds = %if.then
  %exception = tail call ptr @__cxa_allocate_exception(i64 16) #24
  invoke void @_ZN19OpenColorIO_v2_4dev9ExceptionC1EPKc(ptr noundef nonnull align 8 dereferenceable(16) %exception, ptr noundef nonnull @.str.33)
          to label %invoke.cont unwind label %lpad

invoke.cont:                                      ; preds = %if.else
  tail call void @__cxa_throw(ptr nonnull %exception, ptr nonnull @_ZTIN19OpenColorIO_v2_4dev9ExceptionE, ptr nonnull @_ZN19OpenColorIO_v2_4dev9ExceptionD1Ev) #27
  unreachable

lpad:                                             ; preds = %if.else
  %7 = landingpad { ptr, i32 }
          cleanup
  br label %eh.resume

if.end:                                           ; preds = %entry
  %exception5 = tail call ptr @__cxa_allocate_exception(i64 16) #24
  invoke void @_ZN19OpenColorIO_v2_4dev9ExceptionC1EPKc(ptr noundef nonnull align 8 dereferenceable(16) %exception5, ptr noundef nonnull @.str.34)
          to label %invoke.cont7 unwind label %lpad6

invoke.cont7:                                     ; preds = %if.end
  tail call void @__cxa_throw(ptr nonnull %exception5, ptr nonnull @_ZTIN19OpenColorIO_v2_4dev9ExceptionE, ptr nonnull @_ZN19OpenColorIO_v2_4dev9ExceptionD1Ev) #27
  unreachable

lpad6:                                            ; preds = %if.end
  %8 = landingpad { ptr, i32 }
          cleanup
  br label %eh.resume

eh.resume:                                        ; preds = %lpad6, %lpad
  %exception5.sink = phi ptr [ %exception5, %lpad6 ], [ %exception, %lpad ]
  %.pn = phi { ptr, i32 } [ %8, %lpad6 ], [ %7, %lpad ]
  tail call void @__cxa_free_exception(ptr %exception5.sink) #24
  resume { ptr, i32 } %.pn
}